; Function Attrs: mustprogress nofree norecurse nosync nounwind willreturn memory(read, inaccessiblemem: none) uwtable
define internal ptr @bsf_child_next(ptr noundef readonly captures(none) %0, ptr noundef readnone captures(address_is_null) %1) #4 {
  %.not = icmp eq ptr %1, null
  br i1 %.not, label %3, label %11

3:                                                ; preds = %2
  %4 = getelementptr inbounds nuw i8, ptr %0, i64 8
  %5 = load ptr, ptr %4, align 8, !tbaa !16
  %6 = getelementptr inbounds nuw i8, ptr %5, i64 16
  %7 = load ptr, ptr %6, align 8, !tbaa !21
  %.not5 = icmp eq ptr %7, null
  br i1 %.not5, label %11, label %8

8:                                                ; preds = %3
  %9 = getelementptr inbounds nuw i8, ptr %0, i64 16
  %10 = load ptr, ptr %9, align 8, !tbaa !9
  br label %11

11:                                               ; preds = %2, %3, %8
  %.0 = phi ptr [ %10, %8 ], [ null, %3 ], [ null, %2 ]
  ret ptr %.0
}